target datalayout = "e-m:e-p270:32:32-p271:32:32-p272:64:64-i64:64-i128:128-f80:128-n8:16:32:64-S128"
target triple = "x86_64-pc-linux-gnu"

%struct._Node = type { %union.anon }
%union.anon = type { %struct.StrNode }
%struct.StrNode = type { %struct.NodeBase, ptr, ptr, i32, i32, [24 x i8] }
%struct.NodeBase = type { i32 }
%struct.ConsAltNode = type { %struct.NodeBase, ptr, ptr }
%struct.QtfrNode = type { %struct.NodeBase, i32, ptr, i32, i32, i32, i32, ptr, ptr, i32 }
%struct.EncloseNode = type { %struct.NodeBase, i32, i32, i32, i32, i32, ptr, i64, i64, i32, i32 }
%struct.BRefNode = type { %struct.NodeBase, i32, i32, [6 x i32], ptr, i32 }
%struct.AnchorNode = type { %struct.NodeBase, i32, ptr, i32, i32 }

; Function Attrs: nounwind sspstrong uwtable
define internal i32 @numbered_ref_check(ptr noundef %0) #0 {
  %2 = alloca i32, align 4
  %3 = alloca ptr, align 8
  %4 = alloca i32, align 4
  %5 = alloca i32, align 4
  store ptr %0, ptr %3, align 8, !tbaa !66
  call void @llvm.lifetime.start.p0(i64 4, ptr %4) #11
  store i32 0, ptr %4, align 4, !tbaa !7
  %6 = load ptr, ptr %3, align 8, !tbaa !66
  %7 = getelementptr inbounds nuw %struct._Node, ptr %6, i32 0, i32 0
  %8 = getelementptr inbounds nuw %struct.NodeBase, ptr %7, i32 0, i32 0
  %9 = load i32, ptr %8, align 8, !tbaa !38
  switch i32 %9, label %63 [
    i32 8, label %10
    i32 9, label %10
    i32 5, label %29
    i32 6, label %35
    i32 4, label %41
    i32 7, label %50
  ]

10:                                               ; preds = %1, %1
  br label %11

11:                                               ; preds = %26, %10
  %12 = load ptr, ptr %3, align 8, !tbaa !66
  %13 = getelementptr inbounds nuw %struct._Node, ptr %12, i32 0, i32 0
  %14 = getelementptr inbounds nuw %struct.ConsAltNode, ptr %13, i32 0, i32 1
  %15 = load ptr, ptr %14, align 8, !tbaa !38
  %16 = call i32 @numbered_ref_check(ptr noundef %15)
  store i32 %16, ptr %4, align 4, !tbaa !7
  br label %17

17:                                               ; preds = %11
  %18 = load i32, ptr %4, align 4, !tbaa !7
  %19 = icmp eq i32 %18, 0
  br i1 %19, label %20, label %26

20:                                               ; preds = %17
  %21 = load ptr, ptr %3, align 8, !tbaa !66
  %22 = getelementptr inbounds nuw %struct._Node, ptr %21, i32 0, i32 0
  %23 = getelementptr inbounds nuw %struct.ConsAltNode, ptr %22, i32 0, i32 2
  %24 = load ptr, ptr %23, align 8, !tbaa !38
  store ptr %24, ptr %3, align 8, !tbaa !66
  %25 = icmp ne ptr %24, null
  br label %26

26:                                               ; preds = %20, %17
  %27 = phi i1 [ false, %17 ], [ %25, %20 ]
  br i1 %27, label %11, label %28, !llvm.loop !91

28:                                               ; preds = %26
  br label %64

29:                                               ; preds = %1
  %30 = load ptr, ptr %3, align 8, !tbaa !66
  %31 = getelementptr inbounds nuw %struct._Node, ptr %30, i32 0, i32 0
  %32 = getelementptr inbounds nuw %struct.QtfrNode, ptr %31, i32 0, i32 2
  %33 = load ptr, ptr %32, align 8, !tbaa !38
  %34 = call i32 @numbered_ref_check(ptr noundef %33)
  store i32 %34, ptr %4, align 4, !tbaa !7
  br label %64

35:                                               ; preds = %1
  %36 = load ptr, ptr %3, align 8, !tbaa !66
  %37 = getelementptr inbounds nuw %struct._Node, ptr %36, i32 0, i32 0
  %38 = getelementptr inbounds nuw %struct.EncloseNode, ptr %37, i32 0, i32 6
  %39 = load ptr, ptr %38, align 8, !tbaa !38
  %40 = call i32 @numbered_ref_check(ptr noundef %39)
  store i32 %40, ptr %4, align 4, !tbaa !7
  br label %64

41:                                               ; preds = %1
  %42 = load ptr, ptr %3, align 8, !tbaa !66
  %43 = getelementptr inbounds nuw %struct._Node, ptr %42, i32 0, i32 0
  %44 = getelementptr inbounds nuw %struct.BRefNode, ptr %43, i32 0, i32 1
  %45 = load i32, ptr %44, align 4, !tbaa !38
  %46 = and i32 %45, 2048
  %47 = icmp ne i32 %46, 0
  br i1 %47, label %49, label %48

48:                                               ; preds = %41
  store i32 -209, ptr %2, align 4
  store i32 1, ptr %5, align 4
  br label %66

49:                                               ; preds = %41
  br label %64

50:                                               ; preds = %1
  %51 = load ptr, ptr %3, align 8, !tbaa !66
  %52 = getelementptr inbounds nuw %struct._Node, ptr %51, i32 0, i32 0
  %53 = getelementptr inbounds nuw %struct.AnchorNode, ptr %52, i32 0, i32 2
  %54 = load ptr, ptr %53, align 8, !tbaa !38
  %55 = icmp ne ptr %54, null
  br i1 %55, label %56, label %62

56:                                               ; preds = %50
  %57 = load ptr, ptr %3, align 8, !tbaa !66
  %58 = getelementptr inbounds nuw %struct._Node, ptr %57, i32 0, i32 0
  %59 = getelementptr inbounds nuw %struct.AnchorNode, ptr %58, i32 0, i32 2
  %60 = load ptr, ptr %59, align 8, !tbaa !38
  %61 = call i32 @numbered_ref_check(ptr noundef %60)
  store i32 %61, ptr %4, align 4, !tbaa !7
  br label %62

62:                                               ; preds = %56, %50
  br label %64

63:                                               ; preds = %1
  br label %64

64:                                               ; preds = %63, %62, %49, %35, %29, %28
  %65 = load i32, ptr %4, align 4, !tbaa !7
  store i32 %65, ptr %2, align 4
  store i32 1, ptr %5, align 4
  br label %66

66:                                               ; preds = %64, %48
  call void @llvm.lifetime.end.p0(i64 4, ptr %4) #11
  %67 = load i32, ptr %2, align 4
  ret i32 %67
}