; Function Attrs: nofree nosync nounwind sspstrong memory(read, inaccessiblemem: none) uwtable
define internal fastcc range(i32 -209, 1) i32 @numbered_ref_check(ptr noundef readonly captures(none) %0) unnamed_addr #12 {
  br label %tailrecurse

tailrecurse:                                      ; preds = %tailrecurse.backedge, %1
  %.tr = phi ptr [ %0, %1 ], [ %.tr.be, %tailrecurse.backedge ]
  %2 = load i32, ptr %.tr, align 8, !tbaa !34
  switch i32 %2, label %.critedge [
    i32 8, label %.preheader
    i32 9, label %.preheader
    i32 5, label %11
    i32 6, label %tailrecurse.backedge.sink.split
    i32 4, label %14
    i32 7, label %18
  ]

.preheader:                                       ; preds = %tailrecurse, %tailrecurse
  br label %3

3:                                                ; preds = %.preheader, %8
  %.010 = phi ptr [ %10, %8 ], [ %.tr, %.preheader ]
  %4 = getelementptr inbounds nuw i8, ptr %.010, i64 8
  %5 = load ptr, ptr %4, align 8, !tbaa !34
  %6 = tail call fastcc i32 @numbered_ref_check(ptr noundef %5)
  %7 = icmp eq i32 %6, 0
  br i1 %7, label %8, label %.critedge

8:                                                ; preds = %3
  %9 = getelementptr inbounds nuw i8, ptr %.010, i64 16
  %10 = load ptr, ptr %9, align 8, !tbaa !34
  %.not16 = icmp eq ptr %10, null
  br i1 %.not16, label %.critedge, label %3, !llvm.loop !127

11:                                               ; preds = %tailrecurse
  br label %tailrecurse.backedge.sink.split

tailrecurse.backedge.sink.split:                  ; preds = %tailrecurse, %11
  %.sink26 = phi i64 [ 8, %11 ], [ 24, %tailrecurse ]
  %12 = getelementptr inbounds nuw i8, ptr %.tr, i64 %.sink26
  %13 = load ptr, ptr %12, align 8, !tbaa !34
  br label %tailrecurse.backedge

tailrecurse.backedge:                             ; preds = %tailrecurse.backedge.sink.split, %18
  %.tr.be = phi ptr [ %20, %18 ], [ %13, %tailrecurse.backedge.sink.split ]
  br label %tailrecurse

14:                                               ; preds = %tailrecurse
  %15 = getelementptr inbounds nuw i8, ptr %.tr, i64 4
  %16 = load i32, ptr %15, align 4, !tbaa !34
  %17 = and i32 %16, 2048
  %.not15 = icmp eq i32 %17, 0
  %spec.select = select i1 %.not15, i32 -209, i32 0
  br label %.critedge

18:                                               ; preds = %tailrecurse
  %19 = getelementptr inbounds nuw i8, ptr %.tr, i64 8
  %20 = load ptr, ptr %19, align 8, !tbaa !34
  %.not = icmp eq ptr %20, null
  br i1 %.not, label %.critedge, label %tailrecurse.backedge

.critedge:                                        ; preds = %18, %tailrecurse, %8, %3, %14
  %.011 = phi i32 [ %spec.select, %14 ], [ %6, %3 ], [ 0, %8 ], [ 0, %tailrecurse ], [ 0, %18 ]
  ret i32 %.011
}